target datalayout = "e-m:e-p270:32:32-p271:32:32-p272:64:64-i64:64-i128:128-f80:128-n8:16:32:64-S128"
target triple = "x86_64-pc-linux-gnu"

@_ZL5oform = internal global ptr null, align 8
@stdout = external global ptr, align 8
@_ZL5pline = internal global [50 x i8] zeroinitializer, align 16

; Function Attrs: mustprogress uwtable
define internal void @_ZL7printLLdd(double noundef %0, double noundef %1) #5 {
  %3 = alloca double, align 8
  %4 = alloca double, align 8
  store double %0, ptr %3, align 8
  store double %1, ptr %4, align 8
  %5 = load ptr, ptr @_ZL5oform, align 8
  %6 = icmp ne ptr %5, null
  br i1 %6, label %7, label %17

7:                                                ; preds = %2
  %8 = load ptr, ptr @stdout, align 8
  %9 = load ptr, ptr @_ZL5oform, align 8
  %10 = load double, ptr %3, align 8
  %11 = fmul double %10, 0x404CA5DC1A63C1F8
  call void @_Z26limited_fprintf_for_numberP8_IO_FILEPKcd(ptr noundef %8, ptr noundef %9, double noundef %11)
  %12 = call i32 @putchar(i32 noundef 9)
  %13 = load ptr, ptr @stdout, align 8
  %14 = load ptr, ptr @_ZL5oform, align 8
  %15 = load double, ptr %4, align 8
  %16 = fmul double %15, 0x404CA5DC1A63C1F8
  call void @_Z26limited_fprintf_for_numberP8_IO_FILEPKcd(ptr noundef %13, ptr noundef %14, double noundef %16)
  br label %27

17:                                               ; preds = %2
  %18 = load double, ptr %3, align 8
  %19 = call noundef ptr @_Z6rtodmsPcmdii(ptr noundef @_ZL5pline, i64 noundef 50, double noundef %18, i32 noundef 78, i32 noundef 83)
  %20 = load ptr, ptr @stdout, align 8
  %21 = call i32 @fputs(ptr noundef %19, ptr noundef %20)
  %22 = call i32 @putchar(i32 noundef 9)
  %23 = load double, ptr %4, align 8
  %24 = call noundef ptr @_Z6rtodmsPcmdii(ptr noundef @_ZL5pline, i64 noundef 50, double noundef %23, i32 noundef 69, i32 noundef 87)
  %25 = load ptr, ptr @stdout, align 8
  %26 = call i32 @fputs(ptr noundef %24, ptr noundef %25)
  br label %27

27:                                               ; preds = %17, %7
  ret void
}