; Function Attrs: mustprogress norecurse uwtable
define internal fastcc void @_ZL7printLLdd(double noundef %0, double noundef %1) unnamed_addr #5 {
  %3 = load ptr, ptr @_ZL5oform, align 8
  %.not = icmp eq ptr %3, null
  br i1 %.not, label %11, label %4

4:                                                ; preds = %2
  %5 = load ptr, ptr @stdout, align 8
  %6 = fmul double %0, 0x404CA5DC1A63C1F8
  tail call void @_Z26limited_fprintf_for_numberP8_IO_FILEPKcd(ptr noundef %5, ptr noundef nonnull %3, double noundef %6)
  %7 = tail call i32 @putchar(i32 noundef 9)
  %8 = load ptr, ptr @stdout, align 8
  %9 = load ptr, ptr @_ZL5oform, align 8
  %10 = fmul double %1, 0x404CA5DC1A63C1F8
  tail call void @_Z26limited_fprintf_for_numberP8_IO_FILEPKcd(ptr noundef %8, ptr noundef %9, double noundef %10)
  br label %19

11:                                               ; preds = %2
  %12 = tail call noundef ptr @_Z6rtodmsPcmdii(ptr noundef nonnull @_ZL5pline, i64 noundef 50, double noundef %0, i32 noundef 78, i32 noundef 83)
  %13 = load ptr, ptr @stdout, align 8
  %14 = tail call i32 @fputs(ptr noundef %12, ptr noundef %13)
  %15 = tail call i32 @putchar(i32 noundef 9)
  %16 = tail call noundef ptr @_Z6rtodmsPcmdii(ptr noundef nonnull @_ZL5pline, i64 noundef 50, double noundef %1, i32 noundef 69, i32 noundef 87)
  %17 = load ptr, ptr @stdout, align 8
  %18 = tail call i32 @fputs(ptr noundef %16, ptr noundef %17)
  br label %19

19:                                               ; preds = %11, %4
  ret void
}